; Function Attrs: null_pointer_is_valid sspstrong uwtable
define internal void @wmem_block_allocator_cleanup(ptr noundef %0) #0 {
  %2 = load ptr, ptr %0, align 8
  store ptr null, ptr %0, align 8
  %.not41.i = icmp eq ptr %2, null
  br i1 %.not41.i, label %wmem_block_gc.exit, label %.lr.ph.i

.lr.ph.i:                                         ; preds = %1
  %3 = getelementptr inbounds nuw i8, ptr %0, i64 16
  %4 = getelementptr inbounds nuw i8, ptr %0, i64 8
  br label %5

5:                                                ; preds = %39, %.lr.ph.i
  %.042.i = phi ptr [ %2, %.lr.ph.i ], [ %8, %39 ]
  %6 = getelementptr i8, ptr %.042.i, i64 16
  %7 = getelementptr inbounds nuw i8, ptr %.042.i, i64 8
  %8 = load ptr, ptr %7, align 8
  %9 = getelementptr i8, ptr %.042.i, i64 20
  %10 = load i32, ptr %9, align 4
  %11 = and i32 %10, 7
  %or.cond40.not.i = icmp eq i32 %11, 1
  br i1 %or.cond40.not.i, label %12, label %36

12:                                               ; preds = %5
  %13 = getelementptr i8, ptr %.042.i, i64 32
  %14 = getelementptr i8, ptr %.042.i, i64 40
  %15 = load ptr, ptr %14, align 8
  %.not38.i = icmp eq ptr %15, null
  %.pre.i = load ptr, ptr %13, align 8
  br i1 %.not38.i, label %18, label %16

16:                                               ; preds = %12
  %17 = getelementptr i8, ptr %15, i64 16
  store ptr %.pre.i, ptr %17, align 8
  br label %18

18:                                               ; preds = %16, %12
  %.not39.i = icmp eq ptr %.pre.i, null
  br i1 %.not39.i, label %22, label %19

19:                                               ; preds = %18
  %20 = load ptr, ptr %14, align 8
  %21 = getelementptr i8, ptr %.pre.i, i64 24
  store ptr %20, ptr %21, align 8
  br label %22

22:                                               ; preds = %19, %18
  %23 = load ptr, ptr %3, align 8
  %24 = icmp eq ptr %23, %6
  br i1 %24, label %25, label %30

25:                                               ; preds = %22
  %26 = load ptr, ptr %14, align 8
  %27 = icmp eq ptr %26, %6
  br i1 %27, label %28, label %29

28:                                               ; preds = %25
  store ptr null, ptr %3, align 8
  br label %35

29:                                               ; preds = %25
  store ptr %26, ptr %3, align 8
  br label %35

30:                                               ; preds = %22
  %31 = load ptr, ptr %4, align 8
  %32 = icmp eq ptr %31, %6
  br i1 %32, label %33, label %35

33:                                               ; preds = %30
  %34 = load ptr, ptr %14, align 8
  store ptr %34, ptr %4, align 8
  br label %35

35:                                               ; preds = %33, %30, %29, %28
  tail call void @wmem_free(ptr noundef null, ptr noundef nonnull %.042.i)
  br label %39

36:                                               ; preds = %5
  store ptr null, ptr %.042.i, align 8
  %37 = load ptr, ptr %0, align 8
  store ptr %37, ptr %7, align 8
  %.not.i.i = icmp eq ptr %37, null
  br i1 %.not.i.i, label %wmem_block_add_to_block_list.exit.i, label %38

38:                                               ; preds = %36
  store ptr %.042.i, ptr %37, align 8
  br label %wmem_block_add_to_block_list.exit.i

wmem_block_add_to_block_list.exit.i:              ; preds = %38, %36
  store ptr %.042.i, ptr %0, align 8
  br label %39

39:                                               ; preds = %wmem_block_add_to_block_list.exit.i, %35
  %.not.i = icmp eq ptr %8, null
  br i1 %.not.i, label %wmem_block_gc.exit, label %5, !llvm.loop !14

wmem_block_gc.exit:                               ; preds = %39, %1
  tail call void @wmem_free(ptr noundef null, ptr noundef %0)
  ret void
}